target datalayout = "e-m:e-p270:32:32-p271:32:32-p272:64:64-i64:64-i128:128-f80:128-n8:16:32:64-S128"
target triple = "x86_64-unknown-linux-gnu"

%"class.hermes::parser::detail::Param" = type { i32 }
%"class.hermes::parser::detail::JSParserImpl" = type { ptr, ptr, %"class.hermes::parser::JSLexer", ptr, i32, ptr, i32, i8, i8, i8, %"class.llvh::SmallVector.15", i32, i8, i8, ptr, ptr, ptr, ptr, ptr, ptr, ptr, ptr, ptr, ptr, ptr, ptr, ptr, ptr, ptr, ptr, ptr, ptr, ptr, ptr, ptr, ptr, ptr, ptr, ptr, ptr, ptr, ptr, ptr, ptr, ptr, ptr, ptr, ptr, ptr, ptr, ptr, ptr, ptr, ptr, ptr, ptr, ptr, ptr, ptr, ptr, ptr, ptr, ptr, ptr, ptr, ptr, ptr, ptr, ptr, ptr, ptr, ptr, ptr, ptr, ptr, ptr, ptr, ptr, ptr, ptr, ptr, ptr, ptr, ptr, ptr, [122 x ptr] }
%"class.hermes::parser::JSLexer" = type { ptr, ptr, i32, %"class.std::unique_ptr.2", ptr, ptr, i8, i8, i8, i8, [4 x i8], %"class.hermes::parser::Token", %"class.llvh::SMLoc", ptr, ptr, ptr, i8, %"class.llvh::SmallString", %"class.llvh::SmallString", [46 x ptr], %"class.std::vector", %"class.std::vector.10" }
%"class.std::unique_ptr.2" = type { %"struct.std::__uniq_ptr_data.3" }
%"struct.std::__uniq_ptr_data.3" = type { %"class.std::__uniq_ptr_impl.4" }
%"class.std::__uniq_ptr_impl.4" = type { %"class.std::tuple.5" }
%"class.std::tuple.5" = type { %"struct.std::_Tuple_impl.6" }
%"struct.std::_Tuple_impl.6" = type { %"struct.std::_Head_base.9" }
%"struct.std::_Head_base.9" = type { ptr }
%"class.hermes::parser::Token" = type <{ i32, [4 x i8], %"class.llvh::SMRange", double, ptr, ptr, ptr, ptr, i8, [7 x i8] }>
%"class.llvh::SMRange" = type { %"class.llvh::SMLoc", %"class.llvh::SMLoc" }
%"class.llvh::SMLoc" = type { ptr }
%"class.llvh::SmallString" = type { %"class.llvh::SmallVector" }
%"class.llvh::SmallVector" = type { %"class.llvh::SmallVectorImpl", %"struct.llvh::SmallVectorStorage" }
%"class.llvh::SmallVectorImpl" = type { %"class.llvh::SmallVectorTemplateBase" }
%"class.llvh::SmallVectorTemplateBase" = type { %"class.llvh::SmallVectorTemplateCommon" }
%"class.llvh::SmallVectorTemplateCommon" = type { %"class.llvh::SmallVectorBase" }
%"class.llvh::SmallVectorBase" = type { ptr, i32, i32 }
%"struct.llvh::SmallVectorStorage" = type { [256 x %"struct.llvh::AlignedCharArrayUnion"] }
%"struct.llvh::AlignedCharArrayUnion" = type { %"struct.llvh::AlignedCharArray" }
%"struct.llvh::AlignedCharArray" = type { [1 x i8] }
%"class.std::vector" = type { %"struct.std::_Vector_base" }
%"struct.std::_Vector_base" = type { %"struct.std::_Vector_base<hermes::parser::StoredComment, std::allocator<hermes::parser::StoredComment>>::_Vector_impl" }
%"struct.std::_Vector_base<hermes::parser::StoredComment, std::allocator<hermes::parser::StoredComment>>::_Vector_impl" = type { %"struct.std::_Vector_base<hermes::parser::StoredComment, std::allocator<hermes::parser::StoredComment>>::_Vector_impl_data" }
%"struct.std::_Vector_base<hermes::parser::StoredComment, std::allocator<hermes::parser::StoredComment>>::_Vector_impl_data" = type { ptr, ptr, ptr }
%"class.std::vector.10" = type { %"struct.std::_Vector_base.11" }
%"struct.std::_Vector_base.11" = type { %"struct.std::_Vector_base<hermes::parser::StoredToken, std::allocator<hermes::parser::StoredToken>>::_Vector_impl" }
%"struct.std::_Vector_base<hermes::parser::StoredToken, std::allocator<hermes::parser::StoredToken>>::_Vector_impl" = type { %"struct.std::_Vector_base<hermes::parser::StoredToken, std::allocator<hermes::parser::StoredToken>>::_Vector_impl_data" }
%"struct.std::_Vector_base<hermes::parser::StoredToken, std::allocator<hermes::parser::StoredToken>>::_Vector_impl_data" = type { ptr, ptr, ptr }
%"class.llvh::SmallVector.15" = type { %"class.llvh::SmallVectorImpl.16", %"struct.llvh::SmallVectorStorage.19" }
%"class.llvh::SmallVectorImpl.16" = type { %"class.llvh::SmallVectorTemplateBase.17" }
%"class.llvh::SmallVectorTemplateBase.17" = type { %"class.llvh::SmallVectorTemplateCommon.18" }
%"class.llvh::SmallVectorTemplateCommon.18" = type { %"class.llvh::SmallVectorBase" }
%"struct.llvh::SmallVectorStorage.19" = type { [1 x %"struct.llvh::AlignedCharArrayUnion.20"] }
%"struct.llvh::AlignedCharArrayUnion.20" = type { %"struct.llvh::AlignedCharArray.21" }
%"struct.llvh::AlignedCharArray.21" = type { [8 x i8] }
%"class.llvh::Twine" = type <{ %"union.llvh::Twine::Child", %"union.llvh::Twine::Child", i8, i8, [6 x i8] }>
%"union.llvh::Twine::Child" = type { ptr }

@.str.96 = private unnamed_addr constant [45 x i8] c"Unexpected usage of 'yield' as an identifier\00", align 1
@.str.97 = private unnamed_addr constant [45 x i8] c"Unexpected usage of 'await' as an identifier\00", align 1
@.str.98 = private unnamed_addr constant [63 x i8] c"Invalid use of strict mode reserved word as binding identifier\00", align 1

; Function Attrs: mustprogress nounwind uwtable
define linkonce_odr hidden void @_ZN6hermes18SourceErrorManager5errorEN4llvh7SMRangeERKNS1_5TwineENS_9SubsystemE(ptr noundef nonnull align 8 dereferenceable(464) %this, ptr %rng.coerce0, ptr %rng.coerce1, ptr noundef nonnull align 8 dereferenceable(18) %msg, i32 noundef %subsystem) #0 comdat align 2 {
entry:
  %rng = alloca %"class.llvh::SMRange", align 8
  %this.addr = alloca ptr, align 8
  %msg.addr = alloca ptr, align 8
  %subsystem.addr = alloca i32, align 4
  %agg.tmp = alloca %"class.llvh::SMRange", align 8
  %0 = getelementptr inbounds { ptr, ptr }, ptr %rng, i32 0, i32 0
  store ptr %rng.coerce0, ptr %0, align 8
  %1 = getelementptr inbounds { ptr, ptr }, ptr %rng, i32 0, i32 1
  store ptr %rng.coerce1, ptr %1, align 8
  store ptr %this, ptr %this.addr, align 8
  store ptr %msg, ptr %msg.addr, align 8
  store i32 %subsystem, ptr %subsystem.addr, align 4
  %this1 = load ptr, ptr %this.addr, align 8
  call void @llvm.memcpy.p0.p0.i64(ptr align 8 %agg.tmp, ptr align 8 %rng, i64 16, i1 false)
  %2 = load ptr, ptr %msg.addr, align 8
  %3 = load i32, ptr %subsystem.addr, align 4
  %4 = getelementptr inbounds { ptr, ptr }, ptr %agg.tmp, i32 0, i32 0
  %5 = load ptr, ptr %4, align 8
  %6 = getelementptr inbounds { ptr, ptr }, ptr %agg.tmp, i32 0, i32 1
  %7 = load ptr, ptr %6, align 8
  call void @_ZN6hermes18SourceErrorManager7messageENS0_8DiagKindEN4llvh7SMRangeERKNS2_5TwineENS_9SubsystemE(ptr noundef nonnull align 8 dereferenceable(464) %this1, i32 noundef 0, ptr %5, ptr %7, ptr noundef nonnull align 8 dereferenceable(18) %2, i32 noundef %3)
  ret void
}

; Function Attrs: mustprogress nounwind uwtable
define linkonce_odr hidden noundef zeroext i1 @_ZNK6hermes6parser7JSLexer12isStrictModeEv(ptr noundef nonnull align 8 dereferenceable(1128) %this) #0 comdat align 2 {
entry:
  %this.addr = alloca ptr, align 8
  store ptr %this, ptr %this.addr, align 8
  %this1 = load ptr, ptr %this.addr, align 8
  %strictMode_ = getelementptr inbounds %"class.hermes::parser::JSLexer", ptr %this1, i32 0, i32 6
  %0 = load i8, ptr %strictMode_, align 8
  %tobool = trunc i8 %0 to i1
  ret i1 %tobool
}

; Function Attrs: mustprogress nounwind uwtable
define linkonce_odr hidden void @_ZN6hermes6parser6detail12JSParserImpl5errorEN4llvh7SMRangeERKNS3_5TwineE(ptr noundef nonnull align 8 dereferenceable(2752) %this, ptr %range.coerce0, ptr %range.coerce1, ptr noundef nonnull align 8 dereferenceable(18) %message) #0 comdat align 2 {
entry:
  %range = alloca %"class.llvh::SMRange", align 8
  %this.addr = alloca ptr, align 8
  %message.addr = alloca ptr, align 8
  %agg.tmp = alloca %"class.llvh::SMRange", align 8
  %0 = getelementptr inbounds { ptr, ptr }, ptr %range, i32 0, i32 0
  store ptr %range.coerce0, ptr %0, align 8
  %1 = getelementptr inbounds { ptr, ptr }, ptr %range, i32 0, i32 1
  store ptr %range.coerce1, ptr %1, align 8
  store ptr %this, ptr %this.addr, align 8
  store ptr %message, ptr %message.addr, align 8
  %this1 = load ptr, ptr %this.addr, align 8
  %sm_ = getelementptr inbounds %"class.hermes::parser::detail::JSParserImpl", ptr %this1, i32 0, i32 1
  %2 = load ptr, ptr %sm_, align 8
  call void @llvm.memcpy.p0.p0.i64(ptr align 8 %agg.tmp, ptr align 8 %range, i64 16, i1 false)
  %3 = load ptr, ptr %message.addr, align 8
  %4 = getelementptr inbounds { ptr, ptr }, ptr %agg.tmp, i32 0, i32 0
  %5 = load ptr, ptr %4, align 8
  %6 = getelementptr inbounds { ptr, ptr }, ptr %agg.tmp, i32 0, i32 1
  %7 = load ptr, ptr %6, align 8
  call void @_ZN6hermes18SourceErrorManager5errorEN4llvh7SMRangeERKNS1_5TwineENS_9SubsystemE(ptr noundef nonnull align 8 dereferenceable(464) %2, ptr %5, ptr %7, ptr noundef nonnull align 8 dereferenceable(18) %3, i32 noundef 2)
  ret void
}

; Function Attrs: mustprogress nounwind uwtable
define linkonce_odr hidden void @_ZN4llvh5TwineC2EPKc(ptr noundef nonnull align 8 dereferenceable(18) %this, ptr noundef %Str) unnamed_addr #0 comdat align 2 {
entry:
  %this.addr = alloca ptr, align 8
  %Str.addr = alloca ptr, align 8
  store ptr %this, ptr %this.addr, align 8
  store ptr %Str, ptr %Str.addr, align 8
  %this1 = load ptr, ptr %this.addr, align 8
  %LHSKind = getelementptr inbounds %"class.llvh::Twine", ptr %this1, i32 0, i32 2
  store i8 1, ptr %LHSKind, align 8
  %RHSKind = getelementptr inbounds %"class.llvh::Twine", ptr %this1, i32 0, i32 3
  store i8 1, ptr %RHSKind, align 1
  %0 = load ptr, ptr %Str.addr, align 8
  %arrayidx = getelementptr inbounds i8, ptr %0, i64 0
  %1 = load i8, ptr %arrayidx, align 1
  %conv = sext i8 %1 to i32
  %cmp = icmp ne i32 %conv, 0
  br i1 %cmp, label %if.then, label %if.else

if.then:                                          ; preds = %entry
  %2 = load ptr, ptr %Str.addr, align 8
  %LHS2 = getelementptr inbounds %"class.llvh::Twine", ptr %this1, i32 0, i32 0
  store ptr %2, ptr %LHS2, align 8
  %LHSKind3 = getelementptr inbounds %"class.llvh::Twine", ptr %this1, i32 0, i32 2
  store i8 3, ptr %LHSKind3, align 8
  br label %if.end

if.else:                                          ; preds = %entry
  %LHSKind4 = getelementptr inbounds %"class.llvh::Twine", ptr %this1, i32 0, i32 2
  store i8 1, ptr %LHSKind4, align 8
  br label %if.end

if.end:                                           ; preds = %if.else, %if.then
  ret void
}

; Function Attrs: mustprogress nounwind uwtable
define linkonce_odr hidden noundef zeroext i1 @_ZNK6hermes6parser6detail12JSParserImpl12isStrictModeEv(ptr noundef nonnull align 8 dereferenceable(2752) %this) #0 comdat align 2 {
entry:
  %this.addr = alloca ptr, align 8
  store ptr %this, ptr %this.addr, align 8
  %this1 = load ptr, ptr %this.addr, align 8
  %lexer_ = getelementptr inbounds %"class.hermes::parser::detail::JSParserImpl", ptr %this1, i32 0, i32 2
  %call = call noundef zeroext i1 @_ZNK6hermes6parser7JSLexer12isStrictModeEv(ptr noundef nonnull align 8 dereferenceable(1128) %lexer_)
  ret i1 %call
}

; Function Attrs: mustprogress nounwind uwtable
define hidden noundef zeroext i1 @_ZN6hermes6parser6detail12JSParserImpl25validateBindingIdentifierENS1_5ParamEN4llvh7SMRangeEPNS_12UniqueStringENS0_9TokenKindE(ptr noundef nonnull align 8 dereferenceable(2752) %this, i32 %param.coerce, ptr %range.coerce0, ptr %range.coerce1, ptr noundef %id, i32 noundef %kind) #0 align 2 {
entry:
  %param = alloca %"class.hermes::parser::detail::Param", align 4
  %range = alloca %"class.llvh::SMRange", align 8
  %this.addr = alloca ptr, align 8
  %id.addr = alloca ptr, align 8
  %kind.addr = alloca i32, align 4
  %agg.tmp = alloca %"class.llvh::SMRange", align 8
  %ref.tmp = alloca %"class.llvh::Twine", align 8
  %agg.tmp8 = alloca %"class.llvh::SMRange", align 8
  %ref.tmp9 = alloca %"class.llvh::Twine", align 8
  %agg.tmp15 = alloca %"class.llvh::SMRange", align 8
  %ref.tmp16 = alloca %"class.llvh::Twine", align 8
  %coerce.dive = getelementptr inbounds %"class.hermes::parser::detail::Param", ptr %param, i32 0, i32 0
  store i32 %param.coerce, ptr %coerce.dive, align 4
  %0 = getelementptr inbounds { ptr, ptr }, ptr %range, i32 0, i32 0
  store ptr %range.coerce0, ptr %0, align 8
  %1 = getelementptr inbounds { ptr, ptr }, ptr %range, i32 0, i32 1
  store ptr %range.coerce1, ptr %1, align 8
  store ptr %this, ptr %this.addr, align 8
  store ptr %id, ptr %id.addr, align 8
  store i32 %kind, ptr %kind.addr, align 4
  %this1 = load ptr, ptr %this.addr, align 8
  %2 = load ptr, ptr %id.addr, align 8
  %yieldIdent_ = getelementptr inbounds %"class.hermes::parser::detail::JSParserImpl", ptr %this1, i32 0, i32 35
  %3 = load ptr, ptr %yieldIdent_, align 8
  %cmp = icmp eq ptr %2, %3
  br i1 %cmp, label %if.then, label %if.end3

if.then:                                          ; preds = %entry
  %call = call noundef zeroext i1 @_ZNK6hermes6parser6detail12JSParserImpl12isStrictModeEv(ptr noundef nonnull align 8 dereferenceable(2752) %this1)
  br i1 %call, label %if.then2, label %lor.lhs.false

lor.lhs.false:                                    ; preds = %if.then
  %paramYield_ = getelementptr inbounds %"class.hermes::parser::detail::JSParserImpl", ptr %this1, i32 0, i32 8
  %4 = load i8, ptr %paramYield_, align 1
  %tobool = trunc i8 %4 to i1
  br i1 %tobool, label %if.then2, label %if.end

if.then2:                                         ; preds = %lor.lhs.false, %if.then
  call void @llvm.memcpy.p0.p0.i64(ptr align 8 %agg.tmp, ptr align 8 %range, i64 16, i1 false)
  call void @_ZN4llvh5TwineC2EPKc(ptr noundef nonnull align 8 dereferenceable(18) %ref.tmp, ptr noundef @.str.96)
  %5 = getelementptr inbounds { ptr, ptr }, ptr %agg.tmp, i32 0, i32 0
  %6 = load ptr, ptr %5, align 8
  %7 = getelementptr inbounds { ptr, ptr }, ptr %agg.tmp, i32 0, i32 1
  %8 = load ptr, ptr %7, align 8
  call void @_ZN6hermes6parser6detail12JSParserImpl5errorEN4llvh7SMRangeERKNS3_5TwineE(ptr noundef nonnull align 8 dereferenceable(2752) %this1, ptr %6, ptr %8, ptr noundef nonnull align 8 dereferenceable(18) %ref.tmp)
  br label %if.end

if.end:                                           ; preds = %if.then2, %lor.lhs.false
  br label %if.end3

if.end3:                                          ; preds = %if.end, %entry
  %9 = load ptr, ptr %id.addr, align 8
  %awaitIdent_ = getelementptr inbounds %"class.hermes::parser::detail::JSParserImpl", ptr %this1, i32 0, i32 43
  %10 = load ptr, ptr %awaitIdent_, align 8
  %cmp4 = icmp eq ptr %9, %10
  br i1 %cmp4, label %if.then5, label %if.end11

if.then5:                                         ; preds = %if.end3
  %paramAwait_ = getelementptr inbounds %"class.hermes::parser::detail::JSParserImpl", ptr %this1, i32 0, i32 9
  %11 = load i8, ptr %paramAwait_, align 2
  %tobool6 = trunc i8 %11 to i1
  br i1 %tobool6, label %if.then7, label %if.end10

if.then7:                                         ; preds = %if.then5
  call void @llvm.memcpy.p0.p0.i64(ptr align 8 %agg.tmp8, ptr align 8 %range, i64 16, i1 false)
  call void @_ZN4llvh5TwineC2EPKc(ptr noundef nonnull align 8 dereferenceable(18) %ref.tmp9, ptr noundef @.str.97)
  %12 = getelementptr inbounds { ptr, ptr }, ptr %agg.tmp8, i32 0, i32 0
  %13 = load ptr, ptr %12, align 8
  %14 = getelementptr inbounds { ptr, ptr }, ptr %agg.tmp8, i32 0, i32 1
  %15 = load ptr, ptr %14, align 8
  call void @_ZN6hermes6parser6detail12JSParserImpl5errorEN4llvh7SMRangeERKNS3_5TwineE(ptr noundef nonnull align 8 dereferenceable(2752) %this1, ptr %13, ptr %15, ptr noundef nonnull align 8 dereferenceable(18) %ref.tmp9)
  br label %if.end10

if.end10:                                         ; preds = %if.then7, %if.then5
  br label %if.end11

if.end11:                                         ; preds = %if.end10, %if.end3
  %call12 = call noundef zeroext i1 @_ZNK6hermes6parser6detail12JSParserImpl12isStrictModeEv(ptr noundef nonnull align 8 dereferenceable(2752) %this1)
  br i1 %call12, label %land.lhs.true, label %if.end17

land.lhs.true:                                    ; preds = %if.end11
  %16 = load ptr, ptr %id.addr, align 8
  %letIdent_ = getelementptr inbounds %"class.hermes::parser::detail::JSParserImpl", ptr %this1, i32 0, i32 22
  %17 = load ptr, ptr %letIdent_, align 8
  %cmp13 = icmp eq ptr %16, %17
  br i1 %cmp13, label %if.then14, label %if.end17

if.then14:                                        ; preds = %land.lhs.true
  call void @llvm.memcpy.p0.p0.i64(ptr align 8 %agg.tmp15, ptr align 8 %range, i64 16, i1 false)
  call void @_ZN4llvh5TwineC2EPKc(ptr noundef nonnull align 8 dereferenceable(18) %ref.tmp16, ptr noundef @.str.98)
  %18 = getelementptr inbounds { ptr, ptr }, ptr %agg.tmp15, i32 0, i32 0
  %19 = load ptr, ptr %18, align 8
  %20 = getelementptr inbounds { ptr, ptr }, ptr %agg.tmp15, i32 0, i32 1
  %21 = load ptr, ptr %20, align 8
  call void @_ZN6hermes6parser6detail12JSParserImpl5errorEN4llvh7SMRangeERKNS3_5TwineE(ptr noundef nonnull align 8 dereferenceable(2752) %this1, ptr %19, ptr %21, ptr noundef nonnull align 8 dereferenceable(18) %ref.tmp16)
  br label %if.end17

if.end17:                                         ; preds = %if.then14, %land.lhs.true, %if.end11
  %22 = load i32, ptr %kind.addr, align 4
  %cmp18 = icmp eq i32 %22, 1
  br i1 %cmp18, label %lor.end, label %lor.rhs

lor.rhs:                                          ; preds = %if.end17
  %23 = load i32, ptr %kind.addr, align 4
  %cmp19 = icmp eq i32 %23, 47
  br label %lor.end

lor.end:                                          ; preds = %lor.rhs, %if.end17
  %24 = phi i1 [ true, %if.end17 ], [ %cmp19, %lor.rhs ]
  ret i1 %24
}