; Function Attrs: mustprogress nounwind uwtable
define hidden noundef zeroext i1 @_ZN6hermes6parser6detail12JSParserImpl25validateBindingIdentifierENS1_5ParamEN4llvh7SMRangeEPNS_12UniqueStringENS0_9TokenKindE(ptr nocapture noundef nonnull readonly align 8 dereferenceable(2752) %this, i32 %param.coerce, ptr %range.coerce0, ptr %range.coerce1, ptr noundef readnone %id, i32 noundef %kind) local_unnamed_addr #0 align 2 {
entry:
  %ref.tmp = alloca %"class.llvh::Twine", align 8
  %ref.tmp9 = alloca %"class.llvh::Twine", align 8
  %ref.tmp16 = alloca %"class.llvh::Twine", align 8
  %yieldIdent_ = getelementptr inbounds i8, ptr %this, i64 1376
  %0 = load ptr, ptr %yieldIdent_, align 8
  %cmp = icmp eq ptr %0, %id
  br i1 %cmp, label %if.then, label %if.end3

if.then:                                          ; preds = %entry
  %strictMode_.i.i = getelementptr inbounds i8, ptr %this, i64 64
  %1 = load i8, ptr %strictMode_.i.i, align 8
  %2 = and i8 %1, 1
  %tobool.i.i.not = icmp eq i8 %2, 0
  br i1 %tobool.i.i.not, label %lor.lhs.false, label %if.then2

lor.lhs.false:                                    ; preds = %if.then
  %paramYield_ = getelementptr inbounds i8, ptr %this, i64 1173
  %3 = load i8, ptr %paramYield_, align 1
  %4 = and i8 %3, 1
  %tobool.not = icmp eq i8 %4, 0
  br i1 %tobool.not, label %if.end3, label %if.then2

if.then2:                                         ; preds = %lor.lhs.false, %if.then
  %LHSKind.i = getelementptr inbounds i8, ptr %ref.tmp, i64 16
  %RHSKind.i = getelementptr inbounds i8, ptr %ref.tmp, i64 17
  store i8 1, ptr %RHSKind.i, align 1
  store ptr @.str.96, ptr %ref.tmp, align 8
  store i8 3, ptr %LHSKind.i, align 8
  %sm_.i = getelementptr inbounds i8, ptr %this, i64 8
  %5 = load ptr, ptr %sm_.i, align 8
  call void @_ZN6hermes18SourceErrorManager7messageENS0_8DiagKindEN4llvh7SMRangeERKNS2_5TwineENS_9SubsystemE(ptr noundef nonnull align 8 dereferenceable(464) %5, i32 noundef 0, ptr %range.coerce0, ptr %range.coerce1, ptr noundef nonnull align 8 dereferenceable(18) %ref.tmp, i32 noundef 2) #16
  br label %if.end3

if.end3:                                          ; preds = %lor.lhs.false, %if.then2, %entry
  %awaitIdent_ = getelementptr inbounds i8, ptr %this, i64 1440
  %6 = load ptr, ptr %awaitIdent_, align 8
  %cmp4 = icmp eq ptr %6, %id
  br i1 %cmp4, label %if.then5, label %if.end11

if.then5:                                         ; preds = %if.end3
  %paramAwait_ = getelementptr inbounds i8, ptr %this, i64 1174
  %7 = load i8, ptr %paramAwait_, align 2
  %8 = and i8 %7, 1
  %tobool6.not = icmp eq i8 %8, 0
  br i1 %tobool6.not, label %if.end11, label %if.then7

if.then7:                                         ; preds = %if.then5
  %LHSKind.i4 = getelementptr inbounds i8, ptr %ref.tmp9, i64 16
  %RHSKind.i5 = getelementptr inbounds i8, ptr %ref.tmp9, i64 17
  store i8 1, ptr %RHSKind.i5, align 1
  store ptr @.str.97, ptr %ref.tmp9, align 8
  store i8 3, ptr %LHSKind.i4, align 8
  %sm_.i6 = getelementptr inbounds i8, ptr %this, i64 8
  %9 = load ptr, ptr %sm_.i6, align 8
  call void @_ZN6hermes18SourceErrorManager7messageENS0_8DiagKindEN4llvh7SMRangeERKNS2_5TwineENS_9SubsystemE(ptr noundef nonnull align 8 dereferenceable(464) %9, i32 noundef 0, ptr %range.coerce0, ptr %range.coerce1, ptr noundef nonnull align 8 dereferenceable(18) %ref.tmp9, i32 noundef 2) #16
  br label %if.end11

if.end11:                                         ; preds = %if.then5, %if.then7, %if.end3
  %strictMode_.i.i7 = getelementptr inbounds i8, ptr %this, i64 64
  %10 = load i8, ptr %strictMode_.i.i7, align 8
  %11 = and i8 %10, 1
  %tobool.i.i8 = icmp ne i8 %11, 0
  %letIdent_ = getelementptr inbounds i8, ptr %this, i64 1272
  %12 = load ptr, ptr %letIdent_, align 8
  %cmp13 = icmp eq ptr %12, %id
  %or.cond = select i1 %tobool.i.i8, i1 %cmp13, i1 false
  br i1 %or.cond, label %if.then14, label %if.end17

if.then14:                                        ; preds = %if.end11
  %LHSKind.i9 = getelementptr inbounds i8, ptr %ref.tmp16, i64 16
  %RHSKind.i10 = getelementptr inbounds i8, ptr %ref.tmp16, i64 17
  store i8 1, ptr %RHSKind.i10, align 1
  store ptr @.str.98, ptr %ref.tmp16, align 8
  store i8 3, ptr %LHSKind.i9, align 8
  %sm_.i11 = getelementptr inbounds i8, ptr %this, i64 8
  %13 = load ptr, ptr %sm_.i11, align 8
  call void @_ZN6hermes18SourceErrorManager7messageENS0_8DiagKindEN4llvh7SMRangeERKNS2_5TwineENS_9SubsystemE(ptr noundef nonnull align 8 dereferenceable(464) %13, i32 noundef 0, ptr %range.coerce0, ptr %range.coerce1, ptr noundef nonnull align 8 dereferenceable(18) %ref.tmp16, i32 noundef 2) #16
  br label %if.end17

if.end17:                                         ; preds = %if.then14, %if.end11
  %cmp18 = icmp eq i32 %kind, 1
  %cmp19 = icmp eq i32 %kind, 47
  %14 = or i1 %cmp18, %cmp19
  ret i1 %14
}